target datalayout = "e-p:32:32-i64:64-v128:32:128-n32-S128"
target triple = "asmjs-unknown-emscripten"

@.str__ZNSt3__212__rs_defaultC1Ev = private unnamed_addr constant [29 x i8] c"__ZNSt3__212__rs_defaultC2Ev\00", align 1
define i8* @_WA_ZNSt3__212__rs_defaultC1Ev() unnamed_addr {
entry:
  %ptr = getelementptr inbounds [29 x i8], [29 x i8]* @.str__ZNSt3__212__rs_defaultC1Ev, i32 0, i32 0
  ret i8* %ptr
}

@.str__ZNSt3__212__rs_defaultC1ERKS0_ = private unnamed_addr constant [33 x i8] c"__ZNSt3__212__rs_defaultC2ERKS0_\00", align 1
define i8* @_WA_ZNSt3__212__rs_defaultC1ERKS0_() unnamed_addr {
entry:
  %ptr = getelementptr inbounds [33 x i8], [33 x i8]* @.str__ZNSt3__212__rs_defaultC1ERKS0_, i32 0, i32 0
  ret i8* %ptr
}

@.str__ZNSt3__212__rs_defaultD1Ev = private unnamed_addr constant [29 x i8] c"__ZNSt3__212__rs_defaultD2Ev\00", align 1
define i8* @_WA_ZNSt3__212__rs_defaultD1Ev() unnamed_addr {
entry:
  %ptr = getelementptr inbounds [29 x i8], [29 x i8]* @.str__ZNSt3__212__rs_defaultD1Ev, i32 0, i32 0
  ret i8* %ptr
}

; exports: "__ZNSt3__26__sortIRNS_6__lessIccEEPcEEvT0_S5_T_", "__ZNSt3__27__sort3IRNS_6__lessIccEEPcEEjT0_S5_S5_T_", "__ZNSt3__27__sort4IRNS_6__lessIccEEPcEEjT0_S5_S5_S5_T_", "__ZNSt3__27__sort5IRNS_6__lessIccEEPcEEjT0_S5_S5_S5_S5_T_", "__ZNSt3__218__insertion_sort_3IRNS_6__lessIccEEPcEEvT0_S5_T_", "__ZNSt3__227__insertion_sort_incompleteIRNS_6__lessIccEEPcEEbT0_S5_T_", "__ZNSt3__26__sortIRNS_6__lessIwwEEPwEEvT0_S5_T_", "__ZNSt3__27__sort3IRNS_6__lessIwwEEPwEEjT0_S5_S5_T_", "__ZNSt3__27__sort4IRNS_6__lessIwwEEPwEEjT0_S5_S5_S5_T_", "__ZNSt3__27__sort5IRNS_6__lessIwwEEPwEEjT0_S5_S5_S5_S5_T_", "__ZNSt3__218__insertion_sort_3IRNS_6__lessIwwEEPwEEvT0_S5_T_", "__ZNSt3__227__insertion_sort_incompleteIRNS_6__lessIwwEEPwEEbT0_S5_T_", "__ZNSt3__26__sortIRNS_6__lessIaaEEPaEEvT0_S5_T_", "__ZNSt3__27__sort3IRNS_6__lessIaaEEPaEEjT0_S5_S5_T_", "__ZNSt3__27__sort4IRNS_6__lessIaaEEPaEEjT0_S5_S5_S5_T_", "__ZNSt3__27__sort5IRNS_6__lessIaaEEPaEEjT0_S5_S5_S5_S5_T_", "__ZNSt3__218__insertion_sort_3IRNS_6__lessIaaEEPaEEvT0_S5_T_", "__ZNSt3__227__insertion_sort_incompleteIRNS_6__lessIaaEEPaEEbT0_S5_T_", "__ZNSt3__26__sortIRNS_6__lessIhhEEPhEEvT0_S5_T_", "__ZNSt3__27__sort3IRNS_6__lessIhhEEPhEEjT0_S5_S5_T_", "__ZNSt3__27__sort4IRNS_6__lessIhhEEPhEEjT0_S5_S5_S5_T_", "__ZNSt3__27__sort5IRNS_6__lessIhhEEPhEEjT0_S5_S5_S5_S5_T_", "__ZNSt3__218__insertion_sort_3IRNS_6__lessIhhEEPhEEvT0_S5_T_", "__ZNSt3__227__insertion_sort_incompleteIRNS_6__lessIhhEEPhEEbT0_S5_T_", "__ZNSt3__26__sortIRNS_6__lessIssEEPsEEvT0_S5_T_", "__ZNSt3__27__sort3IRNS_6__lessIssEEPsEEjT0_S5_S5_T_", "__ZNSt3__27__sort4IRNS_6__lessIssEEPsEEjT0_S5_S5_S5_T_", "__ZNSt3__27__sort5IRNS_6__lessIssEEPsEEjT0_S5_S5_S5_S5_T_", "__ZNSt3__218__insertion_sort_3IRNS_6__lessIssEEPsEEvT0_S5_T_", "__ZNSt3__227__insertion_sort_incompleteIRNS_6__lessIssEEPsEEbT0_S5_T_", "__ZNSt3__26__sortIRNS_6__lessIttEEPtEEvT0_S5_T_", "__ZNSt3__27__sort3IRNS_6__lessIttEEPtEEjT0_S5_S5_T_", "__ZNSt3__27__sort4IRNS_6__lessIttEEPtEEjT0_S5_S5_S5_T_", "__ZNSt3__27__sort5IRNS_6__lessIttEEPtEEjT0_S5_S5_S5_S5_T_", "__ZNSt3__218__insertion_sort_3IRNS_6__lessIttEEPtEEvT0_S5_T_", "__ZNSt3__227__insertion_sort_incompleteIRNS_6__lessIttEEPtEEbT0_S5_T_", "__ZNSt3__26__sortIRNS_6__lessIiiEEPiEEvT0_S5_T_", "__ZNSt3__27__sort3IRNS_6__lessIiiEEPiEEjT0_S5_S5_T_", "__ZNSt3__27__sort4IRNS_6__lessIiiEEPiEEjT0_S5_S5_S5_T_", "__ZNSt3__27__sort5IRNS_6__lessIiiEEPiEEjT0_S5_S5_S5_S5_T_", "__ZNSt3__218__insertion_sort_3IRNS_6__lessIiiEEPiEEvT0_S5_T_", "__ZNSt3__227__insertion_sort_incompleteIRNS_6__lessIiiEEPiEEbT0_S5_T_", "__ZNSt3__26__sortIRNS_6__lessIjjEEPjEEvT0_S5_T_", "__ZNSt3__27__sort3IRNS_6__lessIjjEEPjEEjT0_S5_S5_T_", "__ZNSt3__27__sort4IRNS_6__lessIjjEEPjEEjT0_S5_S5_S5_T_", "__ZNSt3__27__sort5IRNS_6__lessIjjEEPjEEjT0_S5_S5_S5_S5_T_", "__ZNSt3__218__insertion_sort_3IRNS_6__lessIjjEEPjEEvT0_S5_T_", "__ZNSt3__227__insertion_sort_incompleteIRNS_6__lessIjjEEPjEEbT0_S5_T_", "__ZNSt3__26__sortIRNS_6__lessIllEEPlEEvT0_S5_T_", "__ZNSt3__27__sort3IRNS_6__lessIllEEPlEEjT0_S5_S5_T_", "__ZNSt3__27__sort4IRNS_6__lessIllEEPlEEjT0_S5_S5_S5_T_", "__ZNSt3__27__sort5IRNS_6__lessIllEEPlEEjT0_S5_S5_S5_S5_T_", "__ZNSt3__218__insertion_sort_3IRNS_6__lessIllEEPlEEvT0_S5_T_", "__ZNSt3__227__insertion_sort_incompleteIRNS_6__lessIllEEPlEEbT0_S5_T_", "__ZNSt3__26__sortIRNS_6__lessImmEEPmEEvT0_S5_T_", "__ZNSt3__27__sort3IRNS_6__lessImmEEPmEEjT0_S5_S5_T_", "__ZNSt3__27__sort4IRNS_6__lessImmEEPmEEjT0_S5_S5_S5_T_", "__ZNSt3__27__sort5IRNS_6__lessImmEEPmEEjT0_S5_S5_S5_S5_T_", "__ZNSt3__218__insertion_sort_3IRNS_6__lessImmEEPmEEvT0_S5_T_", "__ZNSt3__227__insertion_sort_incompleteIRNS_6__lessImmEEPmEEbT0_S5_T_", "__ZNSt3__26__sortIRNS_6__lessIxxEEPxEEvT0_S5_T_", "__ZNSt3__27__sort3IRNS_6__lessIxxEEPxEEjT0_S5_S5_T_", "__ZNSt3__27__sort4IRNS_6__lessIxxEEPxEEjT0_S5_S5_S5_T_", "__ZNSt3__27__sort5IRNS_6__lessIxxEEPxEEjT0_S5_S5_S5_S5_T_", "__ZNSt3__218__insertion_sort_3IRNS_6__lessIxxEEPxEEvT0_S5_T_", "__ZNSt3__227__insertion_sort_incompleteIRNS_6__lessIxxEEPxEEbT0_S5_T_", "__ZNSt3__26__sortIRNS_6__lessIyyEEPyEEvT0_S5_T_", "__ZNSt3__27__sort3IRNS_6__lessIyyEEPyEEjT0_S5_S5_T_", "__ZNSt3__27__sort4IRNS_6__lessIyyEEPyEEjT0_S5_S5_S5_T_", "__ZNSt3__27__sort5IRNS_6__lessIyyEEPyEEjT0_S5_S5_S5_S5_T_", "__ZNSt3__218__insertion_sort_3IRNS_6__lessIyyEEPyEEvT0_S5_T_", "__ZNSt3__227__insertion_sort_incompleteIRNS_6__lessIyyEEPyEEbT0_S5_T_", "__ZNSt3__26__sortIRNS_6__lessIffEEPfEEvT0_S5_T_", "__ZNSt3__27__sort3IRNS_6__lessIffEEPfEEjT0_S5_S5_T_", "__ZNSt3__27__sort4IRNS_6__lessIffEEPfEEjT0_S5_S5_S5_T_", "__ZNSt3__27__sort5IRNS_6__lessIffEEPfEEjT0_S5_S5_S5_S5_T_", "__ZNSt3__218__insertion_sort_3IRNS_6__lessIffEEPfEEvT0_S5_T_", "__ZNSt3__227__insertion_sort_incompleteIRNS_6__lessIffEEPfEEbT0_S5_T_", "__ZNSt3__26__sortIRNS_6__lessIddEEPdEEvT0_S5_T_", "__ZNSt3__27__sort3IRNS_6__lessIddEEPdEEjT0_S5_S5_T_", "__ZNSt3__27__sort4IRNS_6__lessIddEEPdEEjT0_S5_S5_S5_T_", "__ZNSt3__27__sort5IRNS_6__lessIddEEPdEEjT0_S5_S5_S5_S5_T_", "__ZNSt3__218__insertion_sort_3IRNS_6__lessIddEEPdEEvT0_S5_T_", "__ZNSt3__227__insertion_sort_incompleteIRNS_6__lessIddEEPdEEbT0_S5_T_", "__ZNSt3__26__sortIRNS_6__lessIeeEEPeEEvT0_S5_T_", "__ZNSt3__27__sort3IRNS_6__lessIeeEEPeEEjT0_S5_S5_T_", "__ZNSt3__27__sort4IRNS_6__lessIeeEEPeEEjT0_S5_S5_S5_T_", "__ZNSt3__27__sort5IRNS_6__lessIeeEEPeEEjT0_S5_S5_S5_S5_T_", "__ZNSt3__218__insertion_sort_3IRNS_6__lessIeeEEPeEEvT0_S5_T_", "__ZNSt3__227__insertion_sort_incompleteIRNS_6__lessIeeEEPeEEbT0_S5_T_", "__ZNSt3__212__rs_defaultC2Ev", "__ZNSt3__212__rs_defaultC2ERKS0_", "__ZNSt3__212__rs_defaultD2Ev", "__ZNSt3__212__rs_defaultclEv", "__ZNSt3__223mersenne_twister_engineIjLj32ELj624ELj397ELj31ELj2567483615ELj11ELj4294967295ELj7ELj2636928640ELj15ELj4022730752ELj18ELj1812433253EEclEv", "__ZNSt3__28__rs_getEv", "__ZNSt3__223mersenne_twister_engineIjLj32ELj624ELj397ELj31ELj2567483615ELj11ELj4294967295ELj7ELj2636928640ELj15ELj4022730752ELj18ELj1812433253EE4seedEj", "__WA_ZNSt3__212__rs_defaultC1Ev", "__WA_ZNSt3__212__rs_defaultC1ERKS0_", "__WA_ZNSt3__212__rs_defaultD1Ev",
